
riscv_mc_helloworld.elf:     file format elf32-littleriscv
riscv_mc_helloworld.elf
architecture: riscv:rv32, flags 0x00000112:
EXEC_P, HAS_SYMS, D_PAGED
start address 0x00000000

Program Header:
    LOAD off    0x00001000 vaddr 0x00000000 paddr 0x00000000 align 2**12
         filesz 0x00000a90 memsz 0x00001650 flags rwx

Sections:
Idx Name          Size      VMA       LMA       File off  Algn  Flags
  0 .text         000009f4  00000000  00000000  00001000  2**4  CONTENTS, ALLOC, LOAD, READONLY, CODE
  1 .gprof        00000000  000009f4  000009f4  00001a90  2**2  CONTENTS
  2 .ctors        00000000  000009f4  000009f4  00001a90  2**2  CONTENTS
  3 .dtors        00000000  000009f4  000009f4  00001a90  2**2  CONTENTS
  4 .rodata       00000084  000009f4  000009f4  000019f4  2**2  CONTENTS, ALLOC, LOAD, READONLY, DATA
  5 .data         00000018  00000a78  00000a78  00001a78  2**2  CONTENTS, ALLOC, LOAD, DATA
  6 .bss          000001bc  00000a90  00000a90  00001a90  2**2  ALLOC
  7 .heap         00000000  00000c50  00000c50  00001a90  2**3  CONTENTS
  8 .stack        00000a00  00000c50  00000c50  00001a90  2**4  ALLOC
  9 .comment      00000033  00000000  00000000  00001a90  2**0  CONTENTS, READONLY
SYMBOL TABLE:
00000000 l    d  .text	00000000 .text
000009f4 l    d  .gprof	00000000 .gprof
000009f4 l    d  .ctors	00000000 .ctors
000009f4 l    d  .dtors	00000000 .dtors
000009f4 l    d  .rodata	00000000 .rodata
00000a78 l    d  .data	00000000 .data
00000a90 l    d  .bss	00000000 .bss
00000c50 l    d  .heap	00000000 .heap
00000c50 l    d  .stack	00000000 .stack
00000000 l    d  .comment	00000000 .comment
00000000 l    df *ABS*	00000000 ./src/bsp/driver/riscv_mc/crt0.o
000000da l       .text	00000000 crtInit
00000068 l       .text	00000000 __handle_isr
0000005a l       .text	00000000 __handle_esr
0000006a l       .text	00000000 __handle_exit
000000f6 l       .text	00000000 bss_init
00000102 l       .text	00000000 bss_loop
0000010e l       .text	00000000 bss_done
00000112 l       .text	00000000 infinitLoop
00000000 l    df *ABS*	00000000 uart.c
00000000 l    df *ABS*	00000000 exit.c
00000000 l    df *ABS*	00000000 interrupt.c
00000000 l    df *ABS*	00000000 iob.c
000001a8 l     F .text	0000000e iob_putc
000001b6 l     F .text	0000000e iob_getc
000001c4 l     F .text	0000000e iob_flush
00000a78 l     O .data	00000014 __stdio
00000a90 l     O .bss	00000004 s_flush_func
00000a94 l     O .bss	00000004 s_getc_func
00000a98 l     O .bss	00000004 s_putc_func
00000000 l    df *ABS*	00000000 pic.c
00000000 l    df *ABS*	00000000 reg_access.c
00000000 l    df *ABS*	00000000 gpio.c
00000000 l    df *ABS*	00000000 main.c
0000026e l     F .text	00000004 lscc_uart_getc
00000272 l     F .text	00000004 lscc_uart_flush
00000276 l     F .text	0000002e lscc_uart_putc
00000aa0 l     O .bss	00000001 idx.1
00000a8c l     O .data	00000001 pin_state.0
00000000 l    df *ABS*	00000000 utils.c
00000000 l    df *ABS*	00000000 printf.c
00000000 l    df *ABS*	00000000 puts.c
00000000 l    df *ABS*	00000000 vfiprintf.c
00000484 l     F .text	0000004c __ultoa_invert
00000000 l    df *ABS*	00000000 strnlen.c
00000000 l    df *ABS*	00000000 fputc.c
00000242 g     F .text	0000002c gpio_output_write
00000422 g     F .text	00000026 printf
0000128c g       .data	00000000 __global_pointer$
0000099a g     F .text	00000028 .hidden __riscv_save_8
000009e6 g     F .text	0000000c .hidden __riscv_restore_3
000009d2 g     F .text	00000020 .hidden __riscv_restore_10
0000099a g     F .text	00000028 .hidden __riscv_save_11
000009f4 g       .text	00000000 _etext
000001f6 g     F .text	00000014 pic_int_pending
000009f4 g       .ctors	00000000 _ctors_end
000009e6 g     F .text	0000000c .hidden __riscv_restore_2
0000011c g     F .text	00000060 irq_callback
0000017c g     F .text	0000002c esr_callback
0000020a g     F .text	0000000e reg_32b_modify
00000448 g     F .text	0000003c puts
000003ac g     F .text	0000002c .hidden __udivsi3
00000a90 g       .bss	00000000 _bss_start
00000992 g     F .text	00000030 .hidden __riscv_save_12
000004d0 g     F .text	0000048a __i_vfprintf
000009d2 g     F .text	00000020 .hidden __riscv_restore_11
000009c2 g     F .text	0000000c .hidden __riscv_save_1
000009e6 g     F .text	0000000c .hidden __riscv_restore_0
000009a8 g     F .text	0000001a .hidden __riscv_save_7
000009dc g     F .text	00000016 .hidden __riscv_restore_5
00000a9c g     O .bss	00000004 pic_dev
000001d2 g     F .text	00000014 iob_init
0000095a g     F .text	00000018 strnlen
000009dc g     F .text	00000016 .hidden __riscv_restore_6
00000c4c g       .bss	00000000 _bss_end
0000099a g     F .text	00000028 .hidden __riscv_save_9
000003d8 g     F .text	00000008 .hidden __umodsi3
000009a8 g     F .text	0000001a .hidden __riscv_save_4
00000090 g     F .text	0000001a uart_init
000009c2 g     F .text	0000000c .hidden __riscv_save_3
00000bf4 g     O .bss	00000058 uart_core_uart
00000000 g       .text	00000000 _ftext
00000000 g       .text	00000000 _start
000009f4 g       .ctors	00000000 _ctors_start
0000038c g     F .text	00000014 .hidden __mulsi3
0000099a g     F .text	00000028 .hidden __riscv_save_10
000009dc g     F .text	00000016 .hidden __riscv_restore_4
000009d2 g     F .text	00000020 .hidden __riscv_restore_8
000009a8 g     F .text	0000001a .hidden __riscv_save_6
00000a00 g       *ABS*	00000000 _STACK_SIZE
000009d2 g     F .text	00000020 .hidden __riscv_restore_9
000009dc g     F .text	00000016 .hidden __riscv_restore_7
000002a4 g     F .text	000000c0 main
00000010 g       .text	00000000 trap_entry
00000000 g       *ABS*	00000000 _HEAP_SIZE
000000aa g     F .text	00000030 uart_putc
000001e6 g     F .text	00000010 pic_int_clear
00000366 g     F .text	00000022 delayCycle
00000972 g     F .text	00000020 putc
000003a4 g     F .text	00000058 .hidden __divsi3
00000388 g     F .text	00000002 delay
00001650 g       .stack	00000000 _stack_start
00000aec g     O .bss	00000108 gpio_inst
00000972 g     F .text	00000020 fputc
000009c2 g     F .text	0000000c .hidden __riscv_save_2
000009a8 g     F .text	0000001a .hidden __riscv_save_5
00000000 g     F *ABS*	000004f4 vfscanf
00000aa4 g     O .bss	00000048 int_table
000003fc g     F .text	00000024 .hidden __modsi3
000009ce g     F .text	00000024 .hidden __riscv_restore_12
000009c2 g     F .text	0000000c .hidden __riscv_save_0
0000011a  w    F .text	00000002 _exit
00000a28  w    O .rodata	0000000c __iob
00000364  w    F .text	00000002 trap_init
00000218 g     F .text	0000002a gpio_init
000009e6 g     F .text	0000000c .hidden __riscv_restore_1
000009f4 g       .dtors	00000000 _dtors_start
000004d0 g     F .text	000004e0 vfprintf



Disassembly of section .text:

00000000 <_ftext>:
_ftext():
   0:	0da0006f          	j	da <crtInit>
	...

00000010 <trap_entry>:
trap_entry():
  10:	fe112e23          	sw	ra,-4(sp)
  14:	fe512c23          	sw	t0,-8(sp)
  18:	fe612a23          	sw	t1,-12(sp)
  1c:	fe712823          	sw	t2,-16(sp)
  20:	fea12623          	sw	a0,-20(sp)
  24:	feb12423          	sw	a1,-24(sp)
  28:	fec12223          	sw	a2,-28(sp)
  2c:	fed12023          	sw	a3,-32(sp)
  30:	fce12e23          	sw	a4,-36(sp)
  34:	fcf12c23          	sw	a5,-40(sp)
  38:	fd012a23          	sw	a6,-44(sp)
  3c:	fd112823          	sw	a7,-48(sp)
  40:	fdc12623          	sw	t3,-52(sp)
  44:	fdd12423          	sw	t4,-56(sp)
  48:	fde12223          	sw	t5,-60(sp)
  4c:	fdf12023          	sw	t6,-64(sp)
  50:	7139                	addi	sp,sp,-64
  52:	34202573          	csrr	a0,mcause
  56:	00054963          	bltz	a0,68 <__handle_isr>

0000005a <__handle_esr>:
__handle_esr():
  5a:	341025f3          	csrr	a1,mepc
  5e:	860a                	mv	a2,sp
  60:	2a31                	jal	17c <esr_callback>
  62:	34151073          	csrw	mepc,a0
  66:	a011                	j	6a <__handle_exit>

00000068 <__handle_isr>:
__handle_isr():
  68:	2855                	jal	11c <irq_callback>

0000006a <__handle_exit>:
__handle_exit():
  6a:	50f2                	lw	ra,60(sp)
  6c:	52e2                	lw	t0,56(sp)
  6e:	5352                	lw	t1,52(sp)
  70:	53c2                	lw	t2,48(sp)
  72:	5532                	lw	a0,44(sp)
  74:	55a2                	lw	a1,40(sp)
  76:	5612                	lw	a2,36(sp)
  78:	5682                	lw	a3,32(sp)
  7a:	4772                	lw	a4,28(sp)
  7c:	47e2                	lw	a5,24(sp)
  7e:	4852                	lw	a6,20(sp)
  80:	48c2                	lw	a7,16(sp)
  82:	4e32                	lw	t3,12(sp)
  84:	4ea2                	lw	t4,8(sp)
  86:	4f12                	lw	t5,4(sp)
  88:	4f82                	lw	t6,0(sp)
  8a:	6121                	addi	sp,sp,64
  8c:	30200073          	mret

00000090 <uart_init>:
uart_init():
  90:	c919                	beqz	a0,a6 <uart_init+0x16>
  92:	c95c                	sw	a5,20(a0)
  94:	4785                	li	a5,1
  96:	c14c                	sw	a1,4(a0)
  98:	c510                	sw	a2,8(a0)
  9a:	c914                	sw	a3,16(a0)
  9c:	cd18                	sw	a4,24(a0)
  9e:	00f50f23          	sb	a5,30(a0)
  a2:	4501                	li	a0,0
  a4:	8082                	ret
  a6:	4505                	li	a0,1
  a8:	8082                	ret

000000aa <uart_putc>:
uart_putc():
  aa:	c515                	beqz	a0,d6 <uart_putc+0x2c>
  ac:	4158                	lw	a4,4(a0)
  ae:	1141                	addi	sp,sp,-16
  b0:	4b5c                	lw	a5,20(a4)
  b2:	0ff7f793          	zext.b	a5,a5
  b6:	00f107a3          	sb	a5,15(sp)
  ba:	00f14783          	lbu	a5,15(sp)
  be:	0207f793          	andi	a5,a5,32
  c2:	c789                	beqz	a5,cc <uart_putc+0x22>
  c4:	c30c                	sw	a1,0(a4)
  c6:	4501                	li	a0,0
  c8:	0141                	addi	sp,sp,16
  ca:	8082                	ret
  cc:	01e54783          	lbu	a5,30(a0)
  d0:	f3e5                	bnez	a5,b0 <uart_putc+0x6>
  d2:	4505                	li	a0,1
  d4:	bfd5                	j	c8 <uart_putc+0x1e>
  d6:	4505                	li	a0,1
  d8:	8082                	ret

000000da <crtInit>:
crtInit():
  da:	01000293          	li	t0,16
  de:	30529073          	csrw	mtvec,t0
  e2:	30005073          	csrwi	mstatus,0
  e6:	30405073          	csrwi	mie,0
  ea:	00001197          	auipc	gp,0x1
  ee:	1a218193          	addi	gp,gp,418 # 128c <__global_pointer$>
  f2:	3c418113          	addi	sp,gp,964 # 1650 <_stack_start>

000000f6 <bss_init>:
bss_init():
  f6:	00001517          	auipc	a0,0x1
  fa:	99a50513          	addi	a0,a0,-1638 # a90 <s_flush_func>
  fe:	9c018593          	addi	a1,gp,-1600 # c4c <_bss_end>

00000102 <bss_loop>:
bss_loop():
 102:	00b50663          	beq	a0,a1,10e <bss_done>
 106:	00052023          	sw	zero,0(a0)
 10a:	0511                	addi	a0,a0,4
 10c:	bfdd                	j	102 <bss_loop>

0000010e <bss_done>:
bss_done():
 10e:	2a59                	jal	2a4 <main>
 110:	2029                	jal	11a <_exit>

00000112 <infinitLoop>:
infinitLoop():
 112:	a001                	j	112 <infinitLoop>
 114:	8082                	ret
 116:	0660006f          	j	17c <esr_callback>

0000011a <_exit>:
_exit():
 11a:	a001                	j	11a <_exit>

0000011c <irq_callback>:
irq_callback():
 11c:	893d                	andi	a0,a0,15
 11e:	479d                	li	a5,7
 120:	00f51963          	bne	a0,a5,132 <irq_callback+0x16>
 124:	6785                	lui	a5,0x1
 126:	aa478793          	addi	a5,a5,-1372 # aa4 <int_table>
 12a:	43b8                	lw	a4,64(a5)
 12c:	c739                	beqz	a4,17a <irq_callback+0x5e>
 12e:	43e8                	lw	a0,68(a5)
 130:	8702                	jr	a4
 132:	47ad                	li	a5,11
 134:	04f51363          	bne	a0,a5,17a <irq_callback+0x5e>
 138:	1101                	addi	sp,sp,-32
 13a:	cc22                	sw	s0,24(sp)
 13c:	6405                	lui	s0,0x1
 13e:	ca26                	sw	s1,20(sp)
 140:	c64e                	sw	s3,12(sp)
 142:	ce06                	sw	ra,28(sp)
 144:	c84a                	sw	s2,16(sp)
 146:	aa440413          	addi	s0,s0,-1372 # aa4 <int_table>
 14a:	4481                	li	s1,0
 14c:	49a5                	li	s3,9
 14e:	0ff4f913          	zext.b	s2,s1
 152:	854a                	mv	a0,s2
 154:	204d                	jal	1f6 <pic_int_pending>
 156:	c519                	beqz	a0,164 <irq_callback+0x48>
 158:	401c                	lw	a5,0(s0)
 15a:	c399                	beqz	a5,160 <irq_callback+0x44>
 15c:	4048                	lw	a0,4(s0)
 15e:	9782                	jalr	a5
 160:	854a                	mv	a0,s2
 162:	2051                	jal	1e6 <pic_int_clear>
 164:	0485                	addi	s1,s1,1
 166:	0421                	addi	s0,s0,8
 168:	ff3493e3          	bne	s1,s3,14e <irq_callback+0x32>
 16c:	40f2                	lw	ra,28(sp)
 16e:	4462                	lw	s0,24(sp)
 170:	44d2                	lw	s1,20(sp)
 172:	4942                	lw	s2,16(sp)
 174:	49b2                	lw	s3,12(sp)
 176:	6105                	addi	sp,sp,32
 178:	8082                	ret
 17a:	8082                	ret

0000017c <esr_callback>:
esr_callback():
 17c:	1101                	addi	sp,sp,-32
 17e:	cc22                	sw	s0,24(sp)
 180:	842e                	mv	s0,a1
 182:	85aa                	mv	a1,a0
 184:	6505                	lui	a0,0x1
 186:	9f450513          	addi	a0,a0,-1548 # 9f4 <_etext>
 18a:	ce06                	sw	ra,28(sp)
 18c:	c632                	sw	a2,12(sp)
 18e:	2c51                	jal	422 <printf>
 190:	4632                	lw	a2,12(sp)
 192:	6505                	lui	a0,0x1
 194:	85a2                	mv	a1,s0
 196:	a1450513          	addi	a0,a0,-1516 # a14 <_STACK_SIZE+0x14>
 19a:	2461                	jal	422 <printf>
 19c:	40f2                	lw	ra,28(sp)
 19e:	00440513          	addi	a0,s0,4
 1a2:	4462                	lw	s0,24(sp)
 1a4:	6105                	addi	sp,sp,32
 1a6:	8082                	ret

000001a8 <iob_putc>:
iob_putc():
 1a8:	6785                	lui	a5,0x1
 1aa:	a987a783          	lw	a5,-1384(a5) # a98 <s_putc_func>
 1ae:	c391                	beqz	a5,1b2 <iob_putc+0xa>
 1b0:	8782                	jr	a5
 1b2:	557d                	li	a0,-1
 1b4:	8082                	ret

000001b6 <iob_getc>:
iob_getc():
 1b6:	6785                	lui	a5,0x1
 1b8:	a947a783          	lw	a5,-1388(a5) # a94 <s_getc_func>
 1bc:	c391                	beqz	a5,1c0 <iob_getc+0xa>
 1be:	8782                	jr	a5
 1c0:	557d                	li	a0,-1
 1c2:	8082                	ret

000001c4 <iob_flush>:
iob_flush():
 1c4:	6785                	lui	a5,0x1
 1c6:	a907a783          	lw	a5,-1392(a5) # a90 <s_flush_func>
 1ca:	c391                	beqz	a5,1ce <iob_flush+0xa>
 1cc:	8782                	jr	a5
 1ce:	4501                	li	a0,0
 1d0:	8082                	ret

000001d2 <iob_init>:
iob_init():
 1d2:	6785                	lui	a5,0x1
 1d4:	a8a7ac23          	sw	a0,-1384(a5) # a98 <s_putc_func>
 1d8:	6785                	lui	a5,0x1
 1da:	a8b7aa23          	sw	a1,-1388(a5) # a94 <s_getc_func>
 1de:	6785                	lui	a5,0x1
 1e0:	a8c7a823          	sw	a2,-1392(a5) # a90 <s_flush_func>
 1e4:	8082                	ret

000001e6 <pic_int_clear>:
pic_int_clear():
 1e6:	8101a703          	lw	a4,-2032(gp) # a9c <pic_dev>
 1ea:	4785                	li	a5,1
 1ec:	00a797b3          	sll	a5,a5,a0
 1f0:	c31c                	sw	a5,0(a4)
 1f2:	4501                	li	a0,0
 1f4:	8082                	ret

000001f6 <pic_int_pending>:
pic_int_pending():
 1f6:	8101a783          	lw	a5,-2032(gp) # a9c <pic_dev>
 1fa:	4398                	lw	a4,0(a5)
 1fc:	4785                	li	a5,1
 1fe:	00a79533          	sll	a0,a5,a0
 202:	8d79                	and	a0,a0,a4
 204:	00a03533          	snez	a0,a0
 208:	8082                	ret

0000020a <reg_32b_modify>:
reg_32b_modify():
 20a:	411c                	lw	a5,0(a0)
 20c:	8e3d                	xor	a2,a2,a5
 20e:	8e6d                	and	a2,a2,a1
 210:	8e3d                	xor	a2,a2,a5
 212:	c110                	sw	a2,0(a0)
 214:	4501                	li	a0,0
 216:	8082                	ret

00000218 <gpio_init>:
gpio_init():
 218:	c11d                	beqz	a0,23e <gpio_init+0x26>
 21a:	c14c                	sw	a1,4(a0)
 21c:	4701                	li	a4,0
 21e:	0521                	addi	a0,a0,8
 220:	4585                	li	a1,1
 222:	00c71463          	bne	a4,a2,22a <gpio_init+0x12>
 226:	4501                	li	a0,0
 228:	8082                	ret
 22a:	00e597b3          	sll	a5,a1,a4
 22e:	c11c                	sw	a5,0(a0)
 230:	8ff5                	and	a5,a5,a3
 232:	00f037b3          	snez	a5,a5
 236:	c15c                	sw	a5,4(a0)
 238:	0705                	addi	a4,a4,1
 23a:	0521                	addi	a0,a0,8
 23c:	b7dd                	j	222 <gpio_init+0xa>
 23e:	4505                	li	a0,1
 240:	8082                	ret

00000242 <gpio_output_write>:
gpio_output_write():
 242:	1141                	addi	sp,sp,-16
 244:	c422                	sw	s0,8(sp)
 246:	c606                	sw	ra,12(sp)
 248:	4405                	li	s0,1
 24a:	cd09                	beqz	a0,264 <gpio_output_write+0x22>
 24c:	058e                	slli	a1,a1,0x3
 24e:	95aa                	add	a1,a1,a0
 250:	45d8                	lw	a4,12(a1)
 252:	4785                	li	a5,1
 254:	4401                	li	s0,0
 256:	00f71763          	bne	a4,a5,264 <gpio_output_write+0x22>
 25a:	4148                	lw	a0,4(a0)
 25c:	458c                	lw	a1,8(a1)
 25e:	00456513          	ori	a0,a0,4
 262:	3765                	jal	20a <reg_32b_modify>
 264:	40b2                	lw	ra,12(sp)
 266:	8522                	mv	a0,s0
 268:	4422                	lw	s0,8(sp)
 26a:	0141                	addi	sp,sp,16
 26c:	8082                	ret

0000026e <lscc_uart_getc>:
lscc_uart_getc():
 26e:	557d                	li	a0,-1
 270:	8082                	ret

00000272 <lscc_uart_flush>:
lscc_uart_flush():
 272:	4501                	li	a0,0
 274:	8082                	ret

00000276 <lscc_uart_putc>:
lscc_uart_putc():
 276:	1141                	addi	sp,sp,-16
 278:	c226                	sw	s1,4(sp)
 27a:	c422                	sw	s0,8(sp)
 27c:	0ff57593          	zext.b	a1,a0
 280:	842a                	mv	s0,a0
 282:	96818513          	addi	a0,gp,-1688 # bf4 <uart_core_uart>
 286:	c606                	sw	ra,12(sp)
 288:	350d                	jal	aa <uart_putc>
 28a:	47a9                	li	a5,10
 28c:	00f41763          	bne	s0,a5,29a <lscc_uart_putc+0x24>
 290:	e509                	bnez	a0,29a <lscc_uart_putc+0x24>
 292:	45b5                	li	a1,13
 294:	96818513          	addi	a0,gp,-1688 # bf4 <uart_core_uart>
 298:	3d09                	jal	aa <uart_putc>
 29a:	40b2                	lw	ra,12(sp)
 29c:	4422                	lw	s0,8(sp)
 29e:	4492                	lw	s1,4(sp)
 2a0:	0141                	addi	sp,sp,16
 2a2:	8082                	ret

000002a4 <main>:
main():
 2a4:	7179                	addi	sp,sp,-48
 2a6:	d422                	sw	s0,40(sp)
 2a8:	6785                	lui	a5,0x1
 2aa:	a3478793          	addi	a5,a5,-1484 # a34 <__iob+0xc>
 2ae:	0ff00693          	li	a3,255
 2b2:	4621                	li	a2,8
 2b4:	6591                	lui	a1,0x4
 2b6:	86018513          	addi	a0,gp,-1952 # aec <gpio_inst>
 2ba:	d606                	sw	ra,44(sp)
 2bc:	ce4e                	sw	s3,28(sp)
 2be:	cc52                	sw	s4,24(sp)
 2c0:	ca56                	sw	s5,20(sp)
 2c2:	c85a                	sw	s6,16(sp)
 2c4:	c65e                	sw	s7,12(sp)
 2c6:	86f1a023          	sw	a5,-1952(gp) # aec <gpio_inst>
 2ca:	d226                	sw	s1,36(sp)
 2cc:	d04a                	sw	s2,32(sp)
 2ce:	37a9                	jal	218 <gpio_init>
 2d0:	66f1                	lui	a3,0x1c
 2d2:	0243d637          	lui	a2,0x243d
 2d6:	6591                	lui	a1,0x4
 2d8:	47a1                	li	a5,8
 2da:	4705                	li	a4,1
 2dc:	20068693          	addi	a3,a3,512 # 1c200 <_stack_start+0x1abb0>
 2e0:	58060613          	addi	a2,a2,1408 # 243d580 <_stack_start+0x243bf30>
 2e4:	40058593          	addi	a1,a1,1024 # 4400 <_stack_start+0x2db0>
 2e8:	96818513          	addi	a0,gp,-1688 # bf4 <uart_core_uart>
 2ec:	3355                	jal	90 <uart_init>
 2ee:	27200613          	li	a2,626
 2f2:	26e00593          	li	a1,622
 2f6:	27600513          	li	a0,630
 2fa:	3de1                	jal	1d2 <iob_init>
 2fc:	20a5                	jal	364 <trap_init>
 2fe:	6505                	lui	a0,0x1
 300:	a4050513          	addi	a0,a0,-1472 # a40 <__iob+0x18>
 304:	2291                	jal	448 <puts>
 306:	6985                	lui	s3,0x1
 308:	4a85                	li	s5,1
 30a:	6b05                	lui	s6,0x1
 30c:	4ba1                	li	s7,8
 30e:	81418493          	addi	s1,gp,-2028 # aa0 <idx.1>
 312:	a8c98913          	addi	s2,s3,-1396 # a8c <pin_state.0>
 316:	00094603          	lbu	a2,0(s2)
 31a:	0004c583          	lbu	a1,0(s1)
 31e:	86018513          	addi	a0,gp,-1952 # aec <gpio_inst>
 322:	3705                	jal	242 <gpio_output_write>
 324:	0004c783          	lbu	a5,0(s1)
 328:	00094583          	lbu	a1,0(s2)
 32c:	a60b0513          	addi	a0,s6,-1440 # a60 <__iob+0x38>
 330:	00fa97b3          	sll	a5,s5,a5
 334:	8dbd                	xor	a1,a1,a5
 336:	20f5                	jal	422 <printf>
 338:	0004c783          	lbu	a5,0(s1)
 33c:	0785                	addi	a5,a5,1
 33e:	0ff7f793          	zext.b	a5,a5
 342:	01778863          	beq	a5,s7,352 <main+0xae>
 346:	00f48023          	sb	a5,0(s1)
 34a:	1f400513          	li	a0,500
 34e:	282d                	jal	388 <delay>
 350:	bf7d                	j	30e <main+0x6a>
 352:	00094783          	lbu	a5,0(s2)
 356:	00048023          	sb	zero,0(s1)
 35a:	fff7c793          	not	a5,a5
 35e:	00f90023          	sb	a5,0(s2)
 362:	b7e5                	j	34a <main+0xa6>

00000364 <trap_init>:
trap_init():
 364:	8082                	ret

00000366 <delayCycle>:
delayCycle():
 366:	1101                	addi	sp,sp,-32
 368:	c62a                	sw	a0,12(sp)
 36a:	4532                	lw	a0,12(sp)
 36c:	6589                	lui	a1,0x2
 36e:	08d58593          	addi	a1,a1,141 # 208d <_stack_start+0xa3d>
 372:	ce06                	sw	ra,28(sp)
 374:	2821                	jal	38c <__mulsi3>
 376:	c62a                	sw	a0,12(sp)
 378:	47b2                	lw	a5,12(sp)
 37a:	fff78713          	addi	a4,a5,-1
 37e:	c63a                	sw	a4,12(sp)
 380:	ffe5                	bnez	a5,378 <delayCycle+0x12>
 382:	40f2                	lw	ra,28(sp)
 384:	6105                	addi	sp,sp,32
 386:	8082                	ret

00000388 <delay>:
delay():
 388:	bff9                	j	366 <delayCycle>
	...

0000038c <__mulsi3>:
__mulsi3():
 38c:	862a                	mv	a2,a0
 38e:	4501                	li	a0,0
 390:	0015f693          	andi	a3,a1,1
 394:	c291                	beqz	a3,398 <__mulsi3+0xc>
 396:	9532                	add	a0,a0,a2
 398:	8185                	srli	a1,a1,0x1
 39a:	0606                	slli	a2,a2,0x1
 39c:	f9f5                	bnez	a1,390 <__mulsi3+0x4>
 39e:	8082                	ret
 3a0:	0000                	unimp
	...

000003a4 <__divsi3>:
__divsi3():
 3a4:	02054e63          	bltz	a0,3e0 <__umodsi3+0x8>
 3a8:	0405c363          	bltz	a1,3ee <__umodsi3+0x16>

000003ac <__udivsi3>:
 3ac:	862e                	mv	a2,a1
 3ae:	85aa                	mv	a1,a0
 3b0:	557d                	li	a0,-1
 3b2:	c215                	beqz	a2,3d6 <__udivsi3+0x2a>
 3b4:	4685                	li	a3,1
 3b6:	00b67863          	bgeu	a2,a1,3c6 <__udivsi3+0x1a>
 3ba:	00c05663          	blez	a2,3c6 <__udivsi3+0x1a>
 3be:	0606                	slli	a2,a2,0x1
 3c0:	0686                	slli	a3,a3,0x1
 3c2:	feb66ce3          	bltu	a2,a1,3ba <__udivsi3+0xe>
 3c6:	4501                	li	a0,0
 3c8:	00c5e463          	bltu	a1,a2,3d0 <__udivsi3+0x24>
 3cc:	8d91                	sub	a1,a1,a2
 3ce:	8d55                	or	a0,a0,a3
 3d0:	8285                	srli	a3,a3,0x1
 3d2:	8205                	srli	a2,a2,0x1
 3d4:	faf5                	bnez	a3,3c8 <__udivsi3+0x1c>
 3d6:	8082                	ret

000003d8 <__umodsi3>:
 3d8:	8286                	mv	t0,ra
 3da:	3fc9                	jal	3ac <__udivsi3>
 3dc:	852e                	mv	a0,a1
 3de:	8282                	jr	t0
 3e0:	40a00533          	neg	a0,a0
 3e4:	00b04763          	bgtz	a1,3f2 <__umodsi3+0x1a>
 3e8:	40b005b3          	neg	a1,a1
 3ec:	b7c1                	j	3ac <__udivsi3>
 3ee:	40b005b3          	neg	a1,a1
 3f2:	8286                	mv	t0,ra
 3f4:	3f65                	jal	3ac <__udivsi3>
 3f6:	40a00533          	neg	a0,a0
 3fa:	8282                	jr	t0

000003fc <__modsi3>:
__modsi3():
 3fc:	8286                	mv	t0,ra
 3fe:	0005c763          	bltz	a1,40c <__modsi3+0x10>
 402:	00054963          	bltz	a0,414 <__modsi3+0x18>
 406:	375d                	jal	3ac <__udivsi3>
 408:	852e                	mv	a0,a1
 40a:	8282                	jr	t0
 40c:	40b005b3          	neg	a1,a1
 410:	fe055be3          	bgez	a0,406 <__modsi3+0xa>
 414:	40a00533          	neg	a0,a0
 418:	3f51                	jal	3ac <__udivsi3>
 41a:	40b00533          	neg	a0,a1
 41e:	8282                	jr	t0
	...

00000422 <printf>:
printf():
 422:	7139                	addi	sp,sp,-64
 424:	da3e                	sw	a5,52(sp)
 426:	6785                	lui	a5,0x1
 428:	d22e                	sw	a1,36(sp)
 42a:	85aa                	mv	a1,a0
 42c:	a2c7a503          	lw	a0,-1492(a5) # a2c <__iob+0x4>
 430:	d432                	sw	a2,40(sp)
 432:	1050                	addi	a2,sp,36
 434:	ce06                	sw	ra,28(sp)
 436:	d636                	sw	a3,44(sp)
 438:	d83a                	sw	a4,48(sp)
 43a:	dc42                	sw	a6,56(sp)
 43c:	de46                	sw	a7,60(sp)
 43e:	c632                	sw	a2,12(sp)
 440:	2841                	jal	4d0 <vfprintf>
 442:	40f2                	lw	ra,28(sp)
 444:	6121                	addi	sp,sp,64
 446:	8082                	ret

00000448 <puts>:
puts():
 448:	57a002ef          	jal	t0,9c2 <__riscv_save_0>
 44c:	6785                	lui	a5,0x1
 44e:	a2c7a583          	lw	a1,-1492(a5) # a2c <__iob+0x4>
 452:	1141                	addi	sp,sp,-16
 454:	842a                	mv	s0,a0
 456:	0045c783          	lbu	a5,4(a1)
 45a:	4481                	li	s1,0
 45c:	8b89                	andi	a5,a5,2
 45e:	eb91                	bnez	a5,472 <puts+0x2a>
 460:	54fd                	li	s1,-1
 462:	8526                	mv	a0,s1
 464:	0141                	addi	sp,sp,16
 466:	a341                	j	9e6 <__riscv_restore_0>
 468:	c62e                	sw	a1,12(sp)
 46a:	9782                	jalr	a5
 46c:	45b2                	lw	a1,12(sp)
 46e:	c111                	beqz	a0,472 <puts+0x2a>
 470:	54fd                	li	s1,-1
 472:	00044503          	lbu	a0,0(s0)
 476:	0405                	addi	s0,s0,1
 478:	459c                	lw	a5,8(a1)
 47a:	f57d                	bnez	a0,468 <puts+0x20>
 47c:	4529                	li	a0,10
 47e:	9782                	jalr	a5
 480:	d16d                	beqz	a0,462 <puts+0x1a>
 482:	bff9                	j	460 <puts+0x18>

00000484 <__ultoa_invert>:
__ultoa_invert():
 484:	524002ef          	jal	t0,9a8 <__riscv_save_4>
 488:	20067793          	andi	a5,a2,512
 48c:	892a                	mv	s2,a0
 48e:	842e                	mv	s0,a1
 490:	84b2                	mv	s1,a2
 492:	02700a13          	li	s4,39
 496:	c781                	beqz	a5,49e <__ultoa_invert+0x1a>
 498:	dff67493          	andi	s1,a2,-513
 49c:	4a1d                	li	s4,7
 49e:	4aa5                	li	s5,9
 4a0:	85a6                	mv	a1,s1
 4a2:	854a                	mv	a0,s2
 4a4:	3721                	jal	3ac <__udivsi3>
 4a6:	89ca                	mv	s3,s2
 4a8:	85a6                	mv	a1,s1
 4aa:	892a                	mv	s2,a0
 4ac:	854e                	mv	a0,s3
 4ae:	372d                	jal	3d8 <__umodsi3>
 4b0:	0ff57793          	zext.b	a5,a0
 4b4:	00faf563          	bgeu	s5,a5,4be <__ultoa_invert+0x3a>
 4b8:	97d2                	add	a5,a5,s4
 4ba:	0ff7f793          	zext.b	a5,a5
 4be:	0405                	addi	s0,s0,1
 4c0:	03078793          	addi	a5,a5,48
 4c4:	fef40fa3          	sb	a5,-1(s0)
 4c8:	fc99fce3          	bgeu	s3,s1,4a0 <__ultoa_invert+0x1c>
 4cc:	8522                	mv	a0,s0
 4ce:	a339                	j	9dc <__riscv_restore_4>

000004d0 <vfprintf>:
vfprintf():
 4d0:	4c2002ef          	jal	t0,992 <__riscv_save_12>
 4d4:	00454783          	lbu	a5,4(a0)
 4d8:	1101                	addi	sp,sp,-32
 4da:	597d                	li	s2,-1
 4dc:	8b89                	andi	a5,a5,2
 4de:	46078b63          	beqz	a5,954 <vfprintf+0x484>
 4e2:	6cc1                	lui	s9,0x10
 4e4:	8aaa                	mv	s5,a0
 4e6:	8a32                	mv	s4,a2
 4e8:	4901                	li	s2,0
 4ea:	01410c13          	addi	s8,sp,20
 4ee:	6d05                	lui	s10,0x1
 4f0:	1cfd                	addi	s9,s9,-1
 4f2:	0005c483          	lbu	s1,0(a1)
 4f6:	44048f63          	beqz	s1,954 <vfprintf+0x484>
 4fa:	02500793          	li	a5,37
 4fe:	00158b93          	addi	s7,a1,1
 502:	00f49863          	bne	s1,a5,512 <vfprintf+0x42>
 506:	0015c483          	lbu	s1,1(a1)
 50a:	00258b93          	addi	s7,a1,2
 50e:	00f49763          	bne	s1,a5,51c <vfprintf+0x4c>
 512:	0905                	addi	s2,s2,1
 514:	85d6                	mv	a1,s5
 516:	8526                	mv	a0,s1
 518:	29a9                	jal	972 <fputc>
 51a:	a2ad                	j	684 <vfprintf+0x1b4>
 51c:	4981                	li	s3,0
 51e:	4b01                	li	s6,0
 520:	4401                	li	s0,0
 522:	46fd                	li	a3,31
 524:	06c00613          	li	a2,108
 528:	06800593          	li	a1,104
 52c:	06a00513          	li	a0,106
 530:	07400813          	li	a6,116
 534:	48a5                	li	a7,9
 536:	02a00313          	li	t1,42
 53a:	02e00e13          	li	t3,46
 53e:	07f00e93          	li	t4,127
 542:	02b00713          	li	a4,43
 546:	02d00f13          	li	t5,45
 54a:	03000f93          	li	t6,48
 54e:	02000293          	li	t0,32
 552:	02300393          	li	t2,35
 556:	0486ef63          	bltu	a3,s0,5b4 <vfprintf+0xe4>
 55a:	04e48263          	beq	s1,a4,59e <vfprintf+0xce>
 55e:	02976563          	bltu	a4,s1,588 <vfprintf+0xb8>
 562:	04548063          	beq	s1,t0,5a2 <vfprintf+0xd2>
 566:	04748463          	beq	s1,t2,5ae <vfprintf+0xde>
 56a:	fd048793          	addi	a5,s1,-48
 56e:	0ff7f793          	zext.b	a5,a5
 572:	06f8e063          	bltu	a7,a5,5d2 <vfprintf+0x102>
 576:	04047493          	andi	s1,s0,64
 57a:	c4a1                	beqz	s1,5c2 <vfprintf+0xf2>
 57c:	00299493          	slli	s1,s3,0x2
 580:	99a6                	add	s3,s3,s1
 582:	0986                	slli	s3,s3,0x1
 584:	99be                	add	s3,s3,a5
 586:	a039                	j	594 <vfprintf+0xc4>
 588:	03e48063          	beq	s1,t5,5a8 <vfprintf+0xd8>
 58c:	fdf49fe3          	bne	s1,t6,56a <vfprintf+0x9a>
 590:	00146413          	ori	s0,s0,1
 594:	000bc483          	lbu	s1,0(s7)
 598:	0b85                	addi	s7,s7,1
 59a:	fcd5                	bnez	s1,556 <vfprintf+0x86>
 59c:	a079                	j	62a <vfprintf+0x15a>
 59e:	00246413          	ori	s0,s0,2
 5a2:	00446413          	ori	s0,s0,4
 5a6:	b7fd                	j	594 <vfprintf+0xc4>
 5a8:	00846413          	ori	s0,s0,8
 5ac:	b7e5                	j	594 <vfprintf+0xc4>
 5ae:	01046413          	ori	s0,s0,16
 5b2:	b7cd                	j	594 <vfprintf+0xc4>
 5b4:	fa8efbe3          	bgeu	t4,s0,56a <vfprintf+0x9a>
 5b8:	04c49963          	bne	s1,a2,60a <vfprintf+0x13a>
 5bc:	08046413          	ori	s0,s0,128
 5c0:	bfd1                	j	594 <vfprintf+0xc4>
 5c2:	002b1493          	slli	s1,s6,0x2
 5c6:	9b26                	add	s6,s6,s1
 5c8:	0b06                	slli	s6,s6,0x1
 5ca:	9b3e                	add	s6,s6,a5
 5cc:	02046413          	ori	s0,s0,32
 5d0:	b7d1                	j	594 <vfprintf+0xc4>
 5d2:	02649363          	bne	s1,t1,5f8 <vfprintf+0x128>
 5d6:	04047493          	andi	s1,s0,64
 5da:	000a2783          	lw	a5,0(s4)
 5de:	0a11                	addi	s4,s4,4
 5e0:	e4c5                	bnez	s1,688 <vfprintf+0x1b8>
 5e2:	0007c663          	bltz	a5,5ee <vfprintf+0x11e>
 5e6:	02046413          	ori	s0,s0,32
 5ea:	8b3e                	mv	s6,a5
 5ec:	b765                	j	594 <vfprintf+0xc4>
 5ee:	40f00b33          	neg	s6,a5
 5f2:	02846413          	ori	s0,s0,40
 5f6:	bf79                	j	594 <vfprintf+0xc4>
 5f8:	fdc490e3          	bne	s1,t3,5b8 <vfprintf+0xe8>
 5fc:	04047793          	andi	a5,s0,64
 600:	34079a63          	bnez	a5,954 <vfprintf+0x484>
 604:	04046413          	ori	s0,s0,64
 608:	b771                	j	594 <vfprintf+0xc4>
 60a:	00b49a63          	bne	s1,a1,61e <vfprintf+0x14e>
 60e:	10047793          	andi	a5,s0,256
 612:	c399                	beqz	a5,618 <vfprintf+0x148>
 614:	20046413          	ori	s0,s0,512
 618:	10046413          	ori	s0,s0,256
 61c:	bfa5                	j	594 <vfprintf+0xc4>
 61e:	0ef4f793          	andi	a5,s1,239
 622:	f6a789e3          	beq	a5,a0,594 <vfprintf+0xc4>
 626:	f70487e3          	beq	s1,a6,594 <vfprintf+0xc4>
 62a:	0009d763          	bgez	s3,638 <vfprintf+0x168>
 62e:	fbf47413          	andi	s0,s0,-65
 632:	0442                	slli	s0,s0,0x10
 634:	8041                	srli	s0,s0,0x10
 636:	4981                	li	s3,0
 638:	0204e793          	ori	a5,s1,32
 63c:	f9b78713          	addi	a4,a5,-101
 640:	0ff77713          	zext.b	a4,a4
 644:	4689                	li	a3,2
 646:	00e6f663          	bgeu	a3,a4,652 <vfprintf+0x182>
 64a:	06100713          	li	a4,97
 64e:	02e79f63          	bne	a5,a4,68c <vfprintf+0x1bc>
 652:	007a0493          	addi	s1,s4,7
 656:	98e1                	andi	s1,s1,-8
 658:	6785                	lui	a5,0x1
 65a:	04a1                	addi	s1,s1,8
 65c:	4a1d                	li	s4,7
 65e:	a7078d93          	addi	s11,a5,-1424 # a70 <__iob+0x48>
 662:	8821                	andi	s0,s0,8
 664:	c051                	beqz	s0,6e8 <vfprintf+0x218>
 666:	414b0b33          	sub	s6,s6,s4
 66a:	014d8433          	add	s0,s11,s4
 66e:	088d9063          	bne	s11,s0,6ee <vfprintf+0x21e>
 672:	9952                	add	s2,s2,s4
 674:	845a                	mv	s0,s6
 676:	2c804963          	bgtz	s0,948 <vfprintf+0x478>
 67a:	000b5363          	bgez	s6,680 <vfprintf+0x1b0>
 67e:	4b01                	li	s6,0
 680:	995a                	add	s2,s2,s6
 682:	8a26                	mv	s4,s1
 684:	85de                	mv	a1,s7
 686:	b5b5                	j	4f2 <vfprintf+0x22>
 688:	89be                	mv	s3,a5
 68a:	b729                	j	594 <vfprintf+0xc4>
 68c:	06300713          	li	a4,99
 690:	00e49c63          	bne	s1,a4,6a8 <vfprintf+0x1d8>
 694:	000a2783          	lw	a5,0(s4)
 698:	004a0493          	addi	s1,s4,4
 69c:	01410d93          	addi	s11,sp,20
 6a0:	00f10a23          	sb	a5,20(sp)
 6a4:	4a05                	li	s4,1
 6a6:	bf75                	j	662 <vfprintf+0x192>
 6a8:	07300713          	li	a4,115
 6ac:	04e49763          	bne	s1,a4,6fa <vfprintf+0x22a>
 6b0:	000a2d83          	lw	s11,0(s4)
 6b4:	004a0493          	addi	s1,s4,4
 6b8:	000d9563          	bnez	s11,6c2 <vfprintf+0x1f2>
 6bc:	6785                	lui	a5,0x1
 6be:	a6878d93          	addi	s11,a5,-1432 # a68 <__iob+0x40>
 6c2:	04047713          	andi	a4,s0,64
 6c6:	55fd                	li	a1,-1
 6c8:	c311                	beqz	a4,6cc <vfprintf+0x1fc>
 6ca:	85ce                	mv	a1,s3
 6cc:	856e                	mv	a0,s11
 6ce:	2471                	jal	95a <strnlen>
 6d0:	8a2a                	mv	s4,a0
 6d2:	bf41                	j	662 <vfprintf+0x192>
 6d4:	85d6                	mv	a1,s5
 6d6:	02000513          	li	a0,32
 6da:	2c61                	jal	972 <fputc>
 6dc:	1b7d                	addi	s6,s6,-1
 6de:	41640933          	sub	s2,s0,s6
 6e2:	ff6a69e3          	bltu	s4,s6,6d4 <vfprintf+0x204>
 6e6:	b741                	j	666 <vfprintf+0x196>
 6e8:	012b0433          	add	s0,s6,s2
 6ec:	bfcd                	j	6de <vfprintf+0x20e>
 6ee:	000dc503          	lbu	a0,0(s11)
 6f2:	85d6                	mv	a1,s5
 6f4:	0d85                	addi	s11,s11,1
 6f6:	2cb5                	jal	972 <fputc>
 6f8:	bf9d                	j	66e <vfprintf+0x19e>
 6fa:	06400713          	li	a4,100
 6fe:	00e48663          	beq	s1,a4,70a <vfprintf+0x23a>
 702:	06900713          	li	a4,105
 706:	04e49e63          	bne	s1,a4,762 <vfprintf+0x292>
 70a:	08047793          	andi	a5,s0,128
 70e:	000a2503          	lw	a0,0(s4)
 712:	004a0493          	addi	s1,s4,4
 716:	cb95                	beqz	a5,74a <vfprintf+0x27a>
 718:	00055663          	bgez	a0,724 <vfprintf+0x254>
 71c:	40a00533          	neg	a0,a0
 720:	40046413          	ori	s0,s0,1024
 724:	fef47713          	andi	a4,s0,-17
 728:	01071d93          	slli	s11,a4,0x10
 72c:	04047413          	andi	s0,s0,64
 730:	010ddd93          	srli	s11,s11,0x10
 734:	c409                	beqz	s0,73e <vfprintf+0x26e>
 736:	00a9ea33          	or	s4,s3,a0
 73a:	060a0e63          	beqz	s4,7b6 <vfprintf+0x2e6>
 73e:	4629                	li	a2,10
 740:	85e2                	mv	a1,s8
 742:	3389                	jal	484 <__ultoa_invert>
 744:	41850a33          	sub	s4,a0,s8
 748:	a0bd                	j	7b6 <vfprintf+0x2e6>
 74a:	10047793          	andi	a5,s0,256
 74e:	d7e9                	beqz	a5,718 <vfprintf+0x248>
 750:	20047793          	andi	a5,s0,512
 754:	c781                	beqz	a5,75c <vfprintf+0x28c>
 756:	0562                	slli	a0,a0,0x18
 758:	8561                	srai	a0,a0,0x18
 75a:	bf7d                	j	718 <vfprintf+0x248>
 75c:	0542                	slli	a0,a0,0x10
 75e:	8541                	srai	a0,a0,0x10
 760:	bf65                	j	718 <vfprintf+0x248>
 762:	07500713          	li	a4,117
 766:	0ee49c63          	bne	s1,a4,85e <vfprintf+0x38e>
 76a:	983d                	andi	s0,s0,-17
 76c:	0442                	slli	s0,s0,0x10
 76e:	8041                	srli	s0,s0,0x10
 770:	4629                	li	a2,10
 772:	08047793          	andi	a5,s0,128
 776:	000a2503          	lw	a0,0(s4)
 77a:	004a0493          	addi	s1,s4,4
 77e:	eb91                	bnez	a5,792 <vfprintf+0x2c2>
 780:	10047793          	andi	a5,s0,256
 784:	c799                	beqz	a5,792 <vfprintf+0x2c2>
 786:	20047793          	andi	a5,s0,512
 78a:	12078263          	beqz	a5,8ae <vfprintf+0x3de>
 78e:	0ff57513          	zext.b	a0,a0
 792:	ff947713          	andi	a4,s0,-7
 796:	01071d93          	slli	s11,a4,0x10
 79a:	04047793          	andi	a5,s0,64
 79e:	010ddd93          	srli	s11,s11,0x10
 7a2:	dfd9                	beqz	a5,740 <vfprintf+0x270>
 7a4:	00a9e7b3          	or	a5,s3,a0
 7a8:	ffc1                	bnez	a5,740 <vfprintf+0x270>
 7aa:	9825                	andi	s0,s0,-23
 7ac:	01041d93          	slli	s11,s0,0x10
 7b0:	010ddd93          	srli	s11,s11,0x10
 7b4:	4a01                	li	s4,0
 7b6:	040df793          	andi	a5,s11,64
 7ba:	0e078d63          	beqz	a5,8b4 <vfprintf+0x3e4>
 7be:	ffedf413          	andi	s0,s11,-2
 7c2:	0442                	slli	s0,s0,0x10
 7c4:	8041                	srli	s0,s0,0x10
 7c6:	87d2                	mv	a5,s4
 7c8:	013a5b63          	bge	s4,s3,7de <vfprintf+0x30e>
 7cc:	6685                	lui	a3,0x1
 7ce:	00ddf6b3          	and	a3,s11,a3
 7d2:	87ce                	mv	a5,s3
 7d4:	e689                	bnez	a3,7de <vfprintf+0x30e>
 7d6:	feedf413          	andi	s0,s11,-18
 7da:	0442                	slli	s0,s0,0x10
 7dc:	8041                	srli	s0,s0,0x10
 7de:	01047713          	andi	a4,s0,16
 7e2:	c765                	beqz	a4,8ca <vfprintf+0x3fa>
 7e4:	1018                	addi	a4,sp,32
 7e6:	9752                	add	a4,a4,s4
 7e8:	ff374683          	lbu	a3,-13(a4)
 7ec:	03000713          	li	a4,48
 7f0:	0ce69563          	bne	a3,a4,8ba <vfprintf+0x3ea>
 7f4:	983d                	andi	s0,s0,-17
 7f6:	0442                	slli	s0,s0,0x10
 7f8:	8041                	srli	s0,s0,0x10
 7fa:	00847713          	andi	a4,s0,8
 7fe:	ef09                	bnez	a4,818 <vfprintf+0x348>
 800:	00147713          	andi	a4,s0,1
 804:	0e070a63          	beqz	a4,8f8 <vfprintf+0x428>
 808:	89d2                	mv	s3,s4
 80a:	0167d763          	bge	a5,s6,818 <vfprintf+0x348>
 80e:	40fb07b3          	sub	a5,s6,a5
 812:	014789b3          	add	s3,a5,s4
 816:	87da                	mv	a5,s6
 818:	40fb0b33          	sub	s6,s6,a5
 81c:	01047793          	andi	a5,s0,16
 820:	0e078d63          	beqz	a5,91a <vfprintf+0x44a>
 824:	85d6                	mv	a1,s5
 826:	03000513          	li	a0,48
 82a:	22a1                	jal	972 <fputc>
 82c:	00c45793          	srli	a5,s0,0xc
 830:	8b85                	andi	a5,a5,1
 832:	e7e9                	bnez	a5,8fc <vfprintf+0x42c>
 834:	0905                	addi	s2,s2,1
 836:	844e                	mv	s0,s3
 838:	108a4263          	blt	s4,s0,93c <vfprintf+0x46c>
 83c:	4781                	li	a5,0
 83e:	0149c463          	blt	s3,s4,846 <vfprintf+0x376>
 842:	414987b3          	sub	a5,s3,s4
 846:	993e                	add	s2,s2,a5
 848:	8452                	mv	s0,s4
 84a:	e20404e3          	beqz	s0,672 <vfprintf+0x1a2>
 84e:	147d                	addi	s0,s0,-1
 850:	008c07b3          	add	a5,s8,s0
 854:	0007c503          	lbu	a0,0(a5)
 858:	85d6                	mv	a1,s5
 85a:	2a21                	jal	972 <fputc>
 85c:	b7fd                	j	84a <vfprintf+0x37a>
 85e:	06f00713          	li	a4,111
 862:	04e48463          	beq	s1,a4,8aa <vfprintf+0x3da>
 866:	07000713          	li	a4,112
 86a:	00e49763          	bne	s1,a4,878 <vfprintf+0x3a8>
 86e:	010d0793          	addi	a5,s10,16 # 1010 <_bss_end+0x3c4>
 872:	8c5d                	or	s0,s0,a5
 874:	4641                	li	a2,16
 876:	bdf5                	j	772 <vfprintf+0x2a2>
 878:	07800713          	li	a4,120
 87c:	02e79163          	bne	a5,a4,89e <vfprintf+0x3ce>
 880:	05800793          	li	a5,88
 884:	00f48463          	beq	s1,a5,88c <vfprintf+0x3bc>
 888:	6785                	lui	a5,0x1
 88a:	b7e5                	j	872 <vfprintf+0x3a2>
 88c:	6789                	lui	a5,0x2
 88e:	80078793          	addi	a5,a5,-2048 # 1800 <_stack_start+0x1b0>
 892:	8c5d                	or	s0,s0,a5
 894:	0442                	slli	s0,s0,0x10
 896:	8041                	srli	s0,s0,0x10
 898:	21000613          	li	a2,528
 89c:	bdd9                	j	772 <vfprintf+0x2a2>
 89e:	85d6                	mv	a1,s5
 8a0:	02500513          	li	a0,37
 8a4:	20f9                	jal	972 <fputc>
 8a6:	0909                	addi	s2,s2,2
 8a8:	b1b5                	j	514 <vfprintf+0x44>
 8aa:	4621                	li	a2,8
 8ac:	b5d9                	j	772 <vfprintf+0x2a2>
 8ae:	01957533          	and	a0,a0,s9
 8b2:	b5c5                	j	792 <vfprintf+0x2c2>
 8b4:	87d2                	mv	a5,s4
 8b6:	846e                	mv	s0,s11
 8b8:	b71d                	j	7de <vfprintf+0x30e>
 8ba:	00c45713          	srli	a4,s0,0xc
 8be:	8b05                	andi	a4,a4,1
 8c0:	e319                	bnez	a4,8c6 <vfprintf+0x3f6>
 8c2:	0785                	addi	a5,a5,1
 8c4:	bf1d                	j	7fa <vfprintf+0x32a>
 8c6:	0789                	addi	a5,a5,2
 8c8:	bf0d                	j	7fa <vfprintf+0x32a>
 8ca:	40647713          	andi	a4,s0,1030
 8ce:	d715                	beqz	a4,7fa <vfprintf+0x32a>
 8d0:	bfcd                	j	8c2 <vfprintf+0x3f2>
 8d2:	85d6                	mv	a1,s5
 8d4:	02000513          	li	a0,32
 8d8:	c63a                	sw	a4,12(sp)
 8da:	c43e                	sw	a5,8(sp)
 8dc:	2859                	jal	972 <fputc>
 8de:	4732                	lw	a4,12(sp)
 8e0:	47a2                	lw	a5,8(sp)
 8e2:	0705                	addi	a4,a4,1
 8e4:	ff6747e3          	blt	a4,s6,8d2 <vfprintf+0x402>
 8e8:	4701                	li	a4,0
 8ea:	00fb4463          	blt	s6,a5,8f2 <vfprintf+0x422>
 8ee:	40fb0733          	sub	a4,s6,a5
 8f2:	993a                	add	s2,s2,a4
 8f4:	97ba                	add	a5,a5,a4
 8f6:	b70d                	j	818 <vfprintf+0x348>
 8f8:	873e                	mv	a4,a5
 8fa:	b7ed                	j	8e4 <vfprintf+0x414>
 8fc:	6785                	lui	a5,0x1
 8fe:	80078793          	addi	a5,a5,-2048 # 800 <vfprintf+0x330>
 902:	8c7d                	and	s0,s0,a5
 904:	0442                	slli	s0,s0,0x10
 906:	8041                	srli	s0,s0,0x10
 908:	0909                	addi	s2,s2,2
 90a:	05800513          	li	a0,88
 90e:	e019                	bnez	s0,914 <vfprintf+0x444>
 910:	07800513          	li	a0,120
 914:	85d6                	mv	a1,s5
 916:	28b1                	jal	972 <fputc>
 918:	bf39                	j	836 <vfprintf+0x366>
 91a:	40647793          	andi	a5,s0,1030
 91e:	df81                	beqz	a5,836 <vfprintf+0x366>
 920:	00247793          	andi	a5,s0,2
 924:	02000513          	li	a0,32
 928:	c399                	beqz	a5,92e <vfprintf+0x45e>
 92a:	02b00513          	li	a0,43
 92e:	40047413          	andi	s0,s0,1024
 932:	c019                	beqz	s0,938 <vfprintf+0x468>
 934:	02d00513          	li	a0,45
 938:	0905                	addi	s2,s2,1
 93a:	bfe9                	j	914 <vfprintf+0x444>
 93c:	85d6                	mv	a1,s5
 93e:	03000513          	li	a0,48
 942:	2805                	jal	972 <fputc>
 944:	147d                	addi	s0,s0,-1
 946:	bdcd                	j	838 <vfprintf+0x368>
 948:	85d6                	mv	a1,s5
 94a:	02000513          	li	a0,32
 94e:	2015                	jal	972 <fputc>
 950:	147d                	addi	s0,s0,-1
 952:	b315                	j	676 <vfprintf+0x1a6>
 954:	854a                	mv	a0,s2
 956:	6105                	addi	sp,sp,32
 958:	a89d                	j	9ce <__riscv_restore_12>

0000095a <strnlen>:
 95a:	95aa                	add	a1,a1,a0
 95c:	87aa                	mv	a5,a0
 95e:	00b78563          	beq	a5,a1,968 <strnlen+0xe>
 962:	0007c703          	lbu	a4,0(a5)
 966:	e701                	bnez	a4,96e <strnlen+0x14>
 968:	40a78533          	sub	a0,a5,a0
 96c:	8082                	ret
 96e:	0785                	addi	a5,a5,1
 970:	b7fd                	j	95e <strnlen+0x4>

00000972 <fputc>:
 972:	050002ef          	jal	t0,9c2 <__riscv_save_0>
 976:	0045c703          	lbu	a4,4(a1)
 97a:	8b09                	andi	a4,a4,2
 97c:	cb01                	beqz	a4,98c <fputc+0x1a>
 97e:	459c                	lw	a5,8(a1)
 980:	842a                	mv	s0,a0
 982:	0ff57513          	zext.b	a0,a0
 986:	9782                	jalr	a5
 988:	00055363          	bgez	a0,98e <fputc+0x1c>
 98c:	547d                	li	s0,-1
 98e:	8522                	mv	a0,s0
 990:	a899                	j	9e6 <__riscv_restore_0>

00000992 <__riscv_save_12>:
 992:	7139                	addi	sp,sp,-64
 994:	4301                	li	t1,0
 996:	c66e                	sw	s11,12(sp)
 998:	a019                	j	99e <__riscv_save_10+0x4>

0000099a <__riscv_save_10>:
 99a:	7139                	addi	sp,sp,-64
 99c:	5341                	li	t1,-16
 99e:	c86a                	sw	s10,16(sp)
 9a0:	ca66                	sw	s9,20(sp)
 9a2:	cc62                	sw	s8,24(sp)
 9a4:	ce5e                	sw	s7,28(sp)
 9a6:	a019                	j	9ac <__riscv_save_4+0x4>

000009a8 <__riscv_save_4>:
 9a8:	7139                	addi	sp,sp,-64
 9aa:	5301                	li	t1,-32
 9ac:	d05a                	sw	s6,32(sp)
 9ae:	d256                	sw	s5,36(sp)
__riscv_save_7():
 9b0:	d452                	sw	s4,40(sp)
 9b2:	d64e                	sw	s3,44(sp)
 9b4:	d84a                	sw	s2,48(sp)
 9b6:	da26                	sw	s1,52(sp)
 9b8:	dc22                	sw	s0,56(sp)
 9ba:	de06                	sw	ra,60(sp)
 9bc:	40610133          	sub	sp,sp,t1
 9c0:	8282                	jr	t0

000009c2 <__riscv_save_0>:
__riscv_save_1():
 9c2:	1141                	addi	sp,sp,-16
 9c4:	c04a                	sw	s2,0(sp)
 9c6:	c226                	sw	s1,4(sp)
 9c8:	c422                	sw	s0,8(sp)
 9ca:	c606                	sw	ra,12(sp)
 9cc:	8282                	jr	t0

000009ce <__riscv_restore_12>:
__riscv_restore_12():
 9ce:	4db2                	lw	s11,12(sp)
 9d0:	0141                	addi	sp,sp,16

000009d2 <__riscv_restore_10>:
 9d2:	4d02                	lw	s10,0(sp)
 9d4:	4c92                	lw	s9,4(sp)
 9d6:	4c22                	lw	s8,8(sp)
 9d8:	4bb2                	lw	s7,12(sp)
 9da:	0141                	addi	sp,sp,16

000009dc <__riscv_restore_4>:
 9dc:	4b02                	lw	s6,0(sp)
 9de:	4a92                	lw	s5,4(sp)
 9e0:	4a22                	lw	s4,8(sp)
 9e2:	49b2                	lw	s3,12(sp)
 9e4:	0141                	addi	sp,sp,16

000009e6 <__riscv_restore_0>:
 9e6:	4902                	lw	s2,0(sp)
 9e8:	4492                	lw	s1,4(sp)
 9ea:	4422                	lw	s0,8(sp)
 9ec:	40b2                	lw	ra,12(sp)
 9ee:	0141                	addi	sp,sp,16
 9f0:	8082                	ret
	...
